target datalayout = "e-m:e-p270:32:32-p271:32:32-p272:64:64-i64:64-i128:128-f80:128-n8:16:32:64-S128"
target triple = "x86_64-pc-linux-gnu"

%class.CodeInstaller = type <{ %class.Arena, ptr, i32, %class.CodeOffsets, i32, i32, i32, i32, i32, i32, i8, i8, [2 x i8], i32, [4 x i8], ptr, ptr, ptr, ptr, ptr, ptr, %class.ExceptionHandlerTable, %class.ImplicitExceptionTable, i8, [7 x i8] }>
%class.Arena = type { i8, i8, i64, ptr, ptr, ptr, ptr }
%class.CodeOffsets = type { [8 x i32] }
%class.ExceptionHandlerTable = type <{ ptr, i32, i32, %class.ReallocMark, [7 x i8] }>
%class.ReallocMark = type { i8 }
%class.ImplicitExceptionTable = type <{ i32, i32, ptr, %class.ReallocMark, [7 x i8] }>
%class.CodeSection = type { ptr, ptr, ptr, ptr, ptr, ptr, ptr, ptr, i8, i8, i32, i8, ptr }

@.str = private unnamed_addr constant [47 x i8] c"src/hotspot/cpu/x86/jvmciCodeInstaller_x86.cpp\00", align 1
@.str.4 = private unnamed_addr constant [46 x i8] c"unsupported type of instruction for call site\00", align 1

; Function Attrs: mustprogress nounwind uwtable
define linkonce_odr hidden noundef ptr @_ZNK17NativeInstruction7addr_atEi(ptr noundef nonnull align 1 dereferenceable(1) %0, i32 noundef %1) #1 comdat align 2 {
  %3 = alloca ptr, align 8
  %4 = alloca i32, align 4
  store ptr %0, ptr %3, align 8
  store i32 %1, ptr %4, align 4
  %5 = load ptr, ptr %3, align 8
  %6 = load i32, ptr %4, align 4
  %7 = sext i32 %6 to i64
  %8 = getelementptr inbounds i8, ptr %5, i64 %7
  ret ptr %8
}

; Function Attrs: mustprogress nounwind uwtable
define linkonce_odr hidden noundef i32 @_ZNK17NativeInstruction6int_atEi(ptr noundef nonnull align 1 dereferenceable(1) %0, i32 noundef %1) #1 comdat align 2 {
  %3 = alloca ptr, align 8
  %4 = alloca i32, align 4
  store ptr %0, ptr %3, align 8
  store i32 %1, ptr %4, align 4
  %5 = load ptr, ptr %3, align 8
  %6 = load i32, ptr %4, align 4
  %7 = call noundef ptr @_ZNK17NativeInstruction7addr_atEi(ptr noundef nonnull align 1 dereferenceable(1) %5, i32 noundef %6)
  %8 = load i32, ptr %7, align 4
  ret i32 %8
}

; Function Attrs: mustprogress nounwind uwtable
define linkonce_odr hidden noundef zeroext i1 @_ZNK17NativeInstruction15has_rex2_prefixEv(ptr noundef nonnull align 1 dereferenceable(1) %0) #1 comdat align 2 {
  %2 = alloca ptr, align 8
  store ptr %0, ptr %2, align 8
  %3 = load ptr, ptr %2, align 8
  %4 = call noundef zeroext i8 @_ZNK17NativeInstruction8ubyte_atEi(ptr noundef nonnull align 1 dereferenceable(1) %3, i32 noundef 0)
  %5 = zext i8 %4 to i32
  %6 = icmp eq i32 %5, 213
  ret i1 %6
}

; Function Attrs: mustprogress nounwind uwtable
define linkonce_odr hidden noundef zeroext i8 @_ZNK17NativeInstruction8ubyte_atEi(ptr noundef nonnull align 1 dereferenceable(1) %0, i32 noundef %1) #1 comdat align 2 {
  %3 = alloca ptr, align 8
  %4 = alloca i32, align 4
  store ptr %0, ptr %3, align 8
  store i32 %1, ptr %4, align 4
  %5 = load ptr, ptr %3, align 8
  %6 = load i32, ptr %4, align 4
  %7 = call noundef ptr @_ZNK17NativeInstruction7addr_atEi(ptr noundef nonnull align 1 dereferenceable(1) %5, i32 noundef %6)
  %8 = load i8, ptr %7, align 1
  ret i8 %8
}

; Function Attrs: mustprogress nounwind uwtable
define linkonce_odr hidden noundef zeroext i1 @_ZN17NativeInstruction12is_cond_jumpEv(ptr noundef nonnull align 1 dereferenceable(1) %0) #1 comdat align 2 {
  %2 = alloca ptr, align 8
  store ptr %0, ptr %2, align 8
  %3 = load ptr, ptr %2, align 8
  %4 = call noundef i32 @_ZNK17NativeInstruction6int_atEi(ptr noundef nonnull align 1 dereferenceable(1) %3, i32 noundef 0)
  %5 = and i32 %4, 61695
  %6 = icmp eq i32 %5, 32783
  br i1 %6, label %12, label %7

7:                                                ; preds = %1
  %8 = call noundef zeroext i8 @_ZNK17NativeInstruction8ubyte_atEi(ptr noundef nonnull align 1 dereferenceable(1) %3, i32 noundef 0)
  %9 = zext i8 %8 to i32
  %10 = and i32 %9, 240
  %11 = icmp eq i32 %10, 112
  br label %12

12:                                               ; preds = %7, %1
  %13 = phi i1 [ true, %1 ], [ %11, %7 ]
  ret i1 %13
}

; Function Attrs: mustprogress nounwind uwtable
define linkonce_odr hidden noundef i32 @_ZNK13NativeCallReg23next_instruction_offsetEv(ptr noundef nonnull align 1 dereferenceable(1) %0) #1 comdat align 2 {
  %2 = alloca i32, align 4
  %3 = alloca ptr, align 8
  store ptr %0, ptr %3, align 8
  %4 = load ptr, ptr %3, align 8
  %5 = call noundef zeroext i8 @_ZNK17NativeInstruction8ubyte_atEi(ptr noundef nonnull align 1 dereferenceable(1) %4, i32 noundef 0)
  %6 = zext i8 %5 to i32
  %7 = icmp eq i32 %6, 255
  br i1 %7, label %8, label %9

8:                                                ; preds = %1
  store i32 2, ptr %2, align 4
  br label %13

9:                                                ; preds = %1
  %10 = call noundef zeroext i1 @_ZNK17NativeInstruction15has_rex2_prefixEv(ptr noundef nonnull align 1 dereferenceable(1) %4)
  br i1 %10, label %11, label %12

11:                                               ; preds = %9
  store i32 4, ptr %2, align 4
  br label %13

12:                                               ; preds = %9
  store i32 3, ptr %2, align 4
  br label %13

13:                                               ; preds = %12, %11, %8
  %14 = load i32, ptr %2, align 4
  ret i32 %14
}

; Function Attrs: mustprogress nounwind uwtable
define linkonce_odr hidden noundef zeroext i1 @_ZN17NativeInstruction11is_call_regEv(ptr noundef nonnull align 1 dereferenceable(1) %0) #1 comdat align 2 {
  %2 = alloca ptr, align 8
  store ptr %0, ptr %2, align 8
  %3 = load ptr, ptr %2, align 8
  %4 = call noundef zeroext i8 @_ZNK17NativeInstruction8ubyte_atEi(ptr noundef nonnull align 1 dereferenceable(1) %3, i32 noundef 0)
  %5 = zext i8 %4 to i32
  %6 = icmp eq i32 %5, 255
  br i1 %6, label %23, label %7

7:                                                ; preds = %1
  %8 = call noundef zeroext i8 @_ZNK17NativeInstruction8ubyte_atEi(ptr noundef nonnull align 1 dereferenceable(1) %3, i32 noundef 1)
  %9 = zext i8 %8 to i32
  %10 = icmp eq i32 %9, 255
  br i1 %10, label %11, label %21

11:                                               ; preds = %7
  %12 = call noundef zeroext i8 @_ZNK17NativeInstruction8ubyte_atEi(ptr noundef nonnull align 1 dereferenceable(1) %3, i32 noundef 0)
  %13 = zext i8 %12 to i32
  %14 = icmp eq i32 %13, 64
  br i1 %14, label %19, label %15

15:                                               ; preds = %11
  %16 = call noundef zeroext i8 @_ZNK17NativeInstruction8ubyte_atEi(ptr noundef nonnull align 1 dereferenceable(1) %3, i32 noundef 0)
  %17 = zext i8 %16 to i32
  %18 = icmp eq i32 %17, 65
  br label %19

19:                                               ; preds = %15, %11
  %20 = phi i1 [ true, %11 ], [ %18, %15 ]
  br label %21

21:                                               ; preds = %19, %7
  %22 = phi i1 [ false, %7 ], [ %20, %19 ]
  br label %23

23:                                               ; preds = %21, %1
  %24 = phi i1 [ true, %1 ], [ %22, %21 ]
  ret i1 %24
}

; Function Attrs: mustprogress nounwind uwtable
define linkonce_odr hidden noundef ptr @_ZNK11CodeSection5startEv(ptr noundef nonnull align 8 dereferenceable(88) %0) #1 comdat align 2 {
  %2 = alloca ptr, align 8
  store ptr %0, ptr %2, align 8
  %3 = load ptr, ptr %2, align 8
  %4 = getelementptr inbounds %class.CodeSection, ptr %3, i32 0, i32 0
  %5 = load ptr, ptr %4, align 8
  ret ptr %5
}

; Function Attrs: mustprogress nounwind uwtable
define linkonce_odr hidden noundef i32 @_ZNK17NativeMovConstReg16instruction_sizeEv(ptr noundef nonnull align 1 dereferenceable(1) %0) #1 comdat align 2 {
  %2 = alloca ptr, align 8
  store ptr %0, ptr %2, align 8
  %3 = load ptr, ptr %2, align 8
  %4 = call noundef zeroext i1 @_ZNK17NativeInstruction15has_rex2_prefixEv(ptr noundef nonnull align 1 dereferenceable(1) %3)
  %5 = select i1 %4, i32 11, i32 10
  ret i32 %5
}

; Function Attrs: mustprogress nounwind uwtable
define linkonce_odr hidden noundef zeroext i1 @_ZN17NativeInstruction16is_mov_literal64Ev(ptr noundef nonnull align 1 dereferenceable(1) %0) #1 comdat align 2 {
  %2 = alloca ptr, align 8
  %3 = alloca i8, align 1
  %4 = alloca i8, align 1
  %5 = alloca i32, align 4
  store ptr %0, ptr %2, align 8
  %6 = load ptr, ptr %2, align 8
  %7 = call noundef zeroext i8 @_ZNK17NativeInstruction8ubyte_atEi(ptr noundef nonnull align 1 dereferenceable(1) %6, i32 noundef 0)
  %8 = zext i8 %7 to i32
  %9 = icmp eq i32 %8, 72
  br i1 %9, label %14, label %10

10:                                               ; preds = %1
  %11 = call noundef zeroext i8 @_ZNK17NativeInstruction8ubyte_atEi(ptr noundef nonnull align 1 dereferenceable(1) %6, i32 noundef 0)
  %12 = zext i8 %11 to i32
  %13 = icmp eq i32 %12, 73
  br label %14

14:                                               ; preds = %10, %1
  %15 = phi i1 [ true, %1 ], [ %13, %10 ]
  %16 = zext i1 %15 to i8
  store i8 %16, ptr %3, align 1
  %17 = call noundef zeroext i8 @_ZNK17NativeInstruction8ubyte_atEi(ptr noundef nonnull align 1 dereferenceable(1) %6, i32 noundef 0)
  %18 = zext i8 %17 to i32
  %19 = icmp eq i32 %18, 213
  br i1 %19, label %20, label %34

20:                                               ; preds = %14
  %21 = call noundef zeroext i8 @_ZNK17NativeInstruction8ubyte_atEi(ptr noundef nonnull align 1 dereferenceable(1) %6, i32 noundef 1)
  %22 = zext i8 %21 to i32
  %23 = icmp eq i32 %22, 8
  br i1 %23, label %32, label %24

24:                                               ; preds = %20
  %25 = call noundef zeroext i8 @_ZNK17NativeInstruction8ubyte_atEi(ptr noundef nonnull align 1 dereferenceable(1) %6, i32 noundef 1)
  %26 = zext i8 %25 to i32
  %27 = icmp eq i32 %26, 9
  br i1 %27, label %32, label %28

28:                                               ; preds = %24
  %29 = call noundef zeroext i8 @_ZNK17NativeInstruction8ubyte_atEi(ptr noundef nonnull align 1 dereferenceable(1) %6, i32 noundef 1)
  %30 = zext i8 %29 to i32
  %31 = icmp eq i32 %30, 24
  br label %32

32:                                               ; preds = %28, %24, %20
  %33 = phi i1 [ true, %24 ], [ true, %20 ], [ %31, %28 ]
  br label %34

34:                                               ; preds = %32, %14
  %35 = phi i1 [ false, %14 ], [ %33, %32 ]
  %36 = zext i1 %35 to i8
  store i8 %36, ptr %4, align 1
  %37 = call noundef zeroext i1 @_ZNK17NativeInstruction15has_rex2_prefixEv(ptr noundef nonnull align 1 dereferenceable(1) %6)
  br i1 %37, label %38, label %40

38:                                               ; preds = %34
  %39 = call noundef zeroext i8 @_ZNK17NativeInstruction8ubyte_atEi(ptr noundef nonnull align 1 dereferenceable(1) %6, i32 noundef 2)
  br label %42

40:                                               ; preds = %34
  %41 = call noundef zeroext i8 @_ZNK17NativeInstruction8ubyte_atEi(ptr noundef nonnull align 1 dereferenceable(1) %6, i32 noundef 1)
  br label %42

42:                                               ; preds = %40, %38
  %43 = phi i8 [ %39, %38 ], [ %41, %40 ]
  %44 = zext i8 %43 to i32
  store i32 %44, ptr %5, align 4
  %45 = load i8, ptr %3, align 1
  %46 = trunc i8 %45 to i1
  br i1 %46, label %50, label %47

47:                                               ; preds = %42
  %48 = load i8, ptr %4, align 1
  %49 = trunc i8 %48 to i1
  br i1 %49, label %50, label %54

50:                                               ; preds = %47, %42
  %51 = load i32, ptr %5, align 4
  %52 = and i32 %51, 248
  %53 = icmp eq i32 %52, 184
  br label %54

54:                                               ; preds = %50, %47
  %55 = phi i1 [ false, %47 ], [ %53, %50 ]
  ret i1 %55
}

; Function Attrs: mustprogress nounwind uwtable
define linkonce_odr hidden noundef zeroext i1 @_ZN17NativeInstruction7is_jumpEv(ptr noundef nonnull align 1 dereferenceable(1) %0) #1 comdat align 2 {
  %2 = alloca ptr, align 8
  store ptr %0, ptr %2, align 8
  %3 = load ptr, ptr %2, align 8
  %4 = call noundef zeroext i8 @_ZNK17NativeInstruction8ubyte_atEi(ptr noundef nonnull align 1 dereferenceable(1) %3, i32 noundef 0)
  %5 = zext i8 %4 to i32
  %6 = icmp eq i32 %5, 233
  br i1 %6, label %11, label %7

7:                                                ; preds = %1
  %8 = call noundef zeroext i8 @_ZNK17NativeInstruction8ubyte_atEi(ptr noundef nonnull align 1 dereferenceable(1) %3, i32 noundef 0)
  %9 = zext i8 %8 to i32
  %10 = icmp eq i32 %9, 235
  br label %11

11:                                               ; preds = %7, %1
  %12 = phi i1 [ true, %1 ], [ %10, %7 ]
  ret i1 %12
}

; Function Attrs: mustprogress nounwind uwtable
define linkonce_odr hidden noundef zeroext i1 @_ZN17NativeInstruction7is_callEv(ptr noundef nonnull align 1 dereferenceable(1) %0) #1 comdat align 2 {
  %2 = alloca ptr, align 8
  store ptr %0, ptr %2, align 8
  %3 = load ptr, ptr %2, align 8
  %4 = call noundef zeroext i8 @_ZNK17NativeInstruction8ubyte_atEi(ptr noundef nonnull align 1 dereferenceable(1) %3, i32 noundef 0)
  %5 = zext i8 %4 to i32
  %6 = icmp eq i32 %5, 232
  ret i1 %6
}

; Function Attrs: mustprogress nounwind uwtable
define hidden noundef i32 @_ZN13CodeInstaller14pd_next_offsetEP17NativeInstructioniP8JVMCIEnv(ptr noundef nonnull align 8 dereferenceable(225) %0, ptr noundef %1, i32 noundef %2, ptr noundef %3) #1 align 2 {
  %5 = alloca i32, align 4
  %6 = alloca ptr, align 8
  %7 = alloca ptr, align 8
  %8 = alloca i32, align 4
  %9 = alloca ptr, align 8
  %10 = alloca i32, align 4
  %11 = alloca ptr, align 8
  %12 = alloca ptr, align 8
  store ptr %0, ptr %6, align 8
  store ptr %1, ptr %7, align 8
  store i32 %2, ptr %8, align 4
  store ptr %3, ptr %9, align 8
  %13 = load ptr, ptr %6, align 8
  %14 = load ptr, ptr %7, align 8
  %15 = call noundef zeroext i1 @_ZN17NativeInstruction7is_callEv(ptr noundef nonnull align 1 dereferenceable(1) %14)
  br i1 %15, label %19, label %16

16:                                               ; preds = %4
  %17 = load ptr, ptr %7, align 8
  %18 = call noundef zeroext i1 @_ZN17NativeInstruction7is_jumpEv(ptr noundef nonnull align 1 dereferenceable(1) %17)
  br i1 %18, label %19, label %22

19:                                               ; preds = %16, %4
  %20 = load i32, ptr %8, align 4
  %21 = add nsw i32 %20, 5
  store i32 %21, ptr %5, align 4
  br label %85

22:                                               ; preds = %16
  %23 = load ptr, ptr %7, align 8
  %24 = call noundef zeroext i1 @_ZN17NativeInstruction16is_mov_literal64Ev(ptr noundef nonnull align 1 dereferenceable(1) %23)
  br i1 %24, label %25, label %61

25:                                               ; preds = %22
  %26 = load i32, ptr %8, align 4
  %27 = load ptr, ptr %7, align 8
  %28 = call noundef i32 @_ZNK17NativeMovConstReg16instruction_sizeEv(ptr noundef nonnull align 1 dereferenceable(1) %27)
  %29 = add nsw i32 %26, %28
  store i32 %29, ptr %10, align 4
  %30 = getelementptr inbounds %class.CodeInstaller, ptr %13, i32 0, i32 16
  %31 = load ptr, ptr %30, align 8
  %32 = call noundef ptr @_ZNK11CodeSection5startEv(ptr noundef nonnull align 8 dereferenceable(88) %31)
  %33 = load i32, ptr %10, align 4
  %34 = sext i32 %33 to i64
  %35 = getelementptr inbounds i8, ptr %32, i64 %34
  store ptr %35, ptr %11, align 8
  %36 = load ptr, ptr %11, align 8
  %37 = getelementptr inbounds i8, ptr %36, i64 0
  %38 = load i8, ptr %37, align 1
  %39 = zext i8 %38 to i32
  %40 = icmp eq i32 %39, 65
  br i1 %40, label %41, label %46

41:                                               ; preds = %25
  %42 = load i32, ptr %10, align 4
  %43 = add nsw i32 %42, 1
  store i32 %43, ptr %10, align 4
  %44 = load ptr, ptr %11, align 8
  %45 = getelementptr inbounds i8, ptr %44, i32 1
  store ptr %45, ptr %11, align 8
  br label %46

46:                                               ; preds = %41, %25
  %47 = load ptr, ptr %11, align 8
  %48 = getelementptr inbounds i8, ptr %47, i64 0
  %49 = load i8, ptr %48, align 1
  %50 = zext i8 %49 to i32
  %51 = icmp eq i32 %50, 213
  br i1 %51, label %52, label %57

52:                                               ; preds = %46
  %53 = load i32, ptr %10, align 4
  %54 = add nsw i32 %53, 2
  store i32 %54, ptr %10, align 4
  %55 = load ptr, ptr %11, align 8
  %56 = getelementptr inbounds i8, ptr %55, i64 2
  store ptr %56, ptr %11, align 8
  br label %57

57:                                               ; preds = %52, %46
  %58 = load i32, ptr %10, align 4
  %59 = add nsw i32 %58, 2
  store i32 %59, ptr %10, align 4
  %60 = load i32, ptr %10, align 4
  store i32 %60, ptr %5, align 4
  br label %85

61:                                               ; preds = %22
  %62 = load ptr, ptr %7, align 8
  %63 = call noundef zeroext i1 @_ZN17NativeInstruction11is_call_regEv(ptr noundef nonnull align 1 dereferenceable(1) %62)
  br i1 %63, label %64, label %69

64:                                               ; preds = %61
  %65 = load i32, ptr %8, align 4
  %66 = load ptr, ptr %7, align 8
  %67 = call noundef i32 @_ZNK13NativeCallReg23next_instruction_offsetEv(ptr noundef nonnull align 1 dereferenceable(1) %66)
  %68 = add nsw i32 %65, %67
  store i32 %68, ptr %5, align 4
  br label %85

69:                                               ; preds = %61
  %70 = load ptr, ptr %7, align 8
  %71 = call noundef zeroext i1 @_ZN17NativeInstruction12is_cond_jumpEv(ptr noundef nonnull align 1 dereferenceable(1) %70)
  br i1 %71, label %72, label %83

72:                                               ; preds = %69
  %73 = load ptr, ptr %7, align 8
  store ptr %73, ptr %12, align 8
  %74 = load i32, ptr %8, align 4
  %75 = load ptr, ptr %12, align 8
  %76 = call noundef ptr @_ZN9Assembler23locate_next_instructionEPh(ptr noundef %75)
  %77 = load ptr, ptr %12, align 8
  %78 = ptrtoint ptr %76 to i64
  %79 = ptrtoint ptr %77 to i64
  %80 = sub i64 %78, %79
  %81 = trunc i64 %80 to i32
  %82 = add nsw i32 %74, %81
  store i32 %82, ptr %5, align 4
  br label %85

83:                                               ; preds = %69
  %84 = load ptr, ptr %9, align 8
  call void (ptr, ptr, i32, ptr, ...) @_ZN8JVMCIEnv12fthrow_errorEPKciS1_z(ptr noundef nonnull align 8 dereferenceable(64) %84, ptr noundef @.str, i32 noundef 73, ptr noundef @.str.4)
  store i32 0, ptr %5, align 4
  br label %85

85:                                               ; preds = %83, %72, %64, %57, %19
  %86 = load i32, ptr %5, align 4
  ret i32 %86
}