; Function Attrs: mustprogress nounwind uwtable
define hidden noundef i32 @_ZN13CodeInstaller14pd_next_offsetEP17NativeInstructioniP8JVMCIEnv(ptr nocapture noundef nonnull readonly align 8 dereferenceable(225) %0, ptr noundef %1, i32 noundef %2, ptr noundef %3) local_unnamed_addr #0 align 2 {
  %5 = load i8, ptr %1, align 1
  switch i8 %5, label %9 [
    i8 -21, label %6
    i8 -23, label %6
    i8 -24, label %6
    i8 72, label %.thread5.i
  ]

6:                                                ; preds = %4, %4, %4
  %7 = add nsw i32 %2, 5
  br label %53

.thread5.i:                                       ; preds = %4
  %8 = getelementptr inbounds i8, ptr %1, i64 1
  br label %_ZN17NativeInstruction16is_mov_literal64Ev.exit

9:                                                ; preds = %4
  %10 = getelementptr inbounds i8, ptr %1, i64 1
  switch i8 %5, label %_ZN17NativeInstruction16is_mov_literal64Ev.exit.thread.thread [
    i8 -43, label %11
    i8 73, label %_ZN17NativeInstruction16is_mov_literal64Ev.exit
    i8 -1, label %_ZN17NativeInstruction11is_call_regEv.exit.thread
  ]

11:                                               ; preds = %9
  %12 = load i8, ptr %10, align 1
  switch i8 %12, label %_ZN17NativeInstruction11is_call_regEv.exit.thread28 [
    i8 8, label %switch.edge.thread.i
    i8 9, label %switch.edge.thread.i
    i8 24, label %switch.edge.thread.i
  ]

switch.edge.thread.i:                             ; preds = %11, %11, %11
  %13 = getelementptr inbounds i8, ptr %1, i64 2
  br label %_ZN17NativeInstruction16is_mov_literal64Ev.exit

_ZN17NativeInstruction16is_mov_literal64Ev.exit:  ; preds = %9, %.thread5.i, %switch.edge.thread.i
  %.in4.i = phi ptr [ %8, %.thread5.i ], [ %13, %switch.edge.thread.i ], [ %10, %9 ]
  %14 = load i8, ptr %.in4.i, align 1
  %15 = and i8 %14, -8
  %16 = icmp eq i8 %15, -72
  br i1 %16, label %17, label %_ZN17NativeInstruction16is_mov_literal64Ev.exit.thread

17:                                               ; preds = %_ZN17NativeInstruction16is_mov_literal64Ev.exit
  %18 = icmp eq i8 %5, -43
  %19 = select i1 %18, i32 11, i32 10
  %20 = add nsw i32 %19, %2
  %21 = getelementptr inbounds i8, ptr %0, i64 136
  %22 = load ptr, ptr %21, align 8
  %23 = load ptr, ptr %22, align 8
  %24 = sext i32 %20 to i64
  %25 = getelementptr inbounds i8, ptr %23, i64 %24
  %26 = load i8, ptr %25, align 1
  %27 = icmp eq i8 %26, 65
  %28 = zext i1 %27 to i32
  %.026 = add nsw i32 %20, %28
  %.025.idx = zext i1 %27 to i64
  %.025 = getelementptr inbounds i8, ptr %25, i64 %.025.idx
  %29 = load i8, ptr %.025, align 1
  %30 = icmp eq i8 %29, -43
  %31 = add nsw i32 %.026, 2
  %.1 = select i1 %30, i32 %31, i32 %.026
  %32 = add nsw i32 %.1, 2
  br label %53

_ZN17NativeInstruction16is_mov_literal64Ev.exit.thread: ; preds = %_ZN17NativeInstruction16is_mov_literal64Ev.exit
  %33 = icmp eq i8 %5, -1
  br i1 %33, label %_ZN17NativeInstruction11is_call_regEv.exit.thread, label %_ZN17NativeInstruction16is_mov_literal64Ev.exit.thread.thread

_ZN17NativeInstruction16is_mov_literal64Ev.exit.thread.thread: ; preds = %9, %_ZN17NativeInstruction16is_mov_literal64Ev.exit.thread
  %34 = getelementptr inbounds i8, ptr %1, i64 1
  %35 = load i8, ptr %34, align 1
  %36 = icmp eq i8 %35, -1
  %37 = and i8 %5, -2
  %spec.select.i27 = icmp eq i8 %37, 64
  %or.cond29 = and i1 %spec.select.i27, %36
  br i1 %or.cond29, label %_ZN17NativeInstruction11is_call_regEv.exit.thread, label %_ZN17NativeInstruction11is_call_regEv.exit.thread28

_ZN17NativeInstruction11is_call_regEv.exit.thread: ; preds = %_ZN17NativeInstruction16is_mov_literal64Ev.exit.thread.thread, %9, %_ZN17NativeInstruction16is_mov_literal64Ev.exit.thread
  %.0.i = phi i32 [ 2, %_ZN17NativeInstruction16is_mov_literal64Ev.exit.thread ], [ 2, %9 ], [ 3, %_ZN17NativeInstruction16is_mov_literal64Ev.exit.thread.thread ]
  %38 = add nsw i32 %.0.i, %2
  br label %53

_ZN17NativeInstruction11is_call_regEv.exit.thread28: ; preds = %11, %_ZN17NativeInstruction16is_mov_literal64Ev.exit.thread.thread
  %39 = load i32, ptr %1, align 4
  %40 = and i32 %39, 61695
  %41 = icmp eq i32 %40, 32783
  %42 = and i32 %39, 240
  %43 = icmp eq i32 %42, 112
  %44 = or i1 %41, %43
  br i1 %44, label %45, label %52

45:                                               ; preds = %_ZN17NativeInstruction11is_call_regEv.exit.thread28
  %46 = tail call noundef ptr @_ZN9Assembler23locate_next_instructionEPh(ptr noundef nonnull %1) #5
  %47 = ptrtoint ptr %46 to i64
  %48 = ptrtoint ptr %1 to i64
  %49 = sub i64 %47, %48
  %50 = trunc i64 %49 to i32
  %51 = add nsw i32 %50, %2
  br label %53

52:                                               ; preds = %_ZN17NativeInstruction11is_call_regEv.exit.thread28
  tail call void (ptr, ptr, i32, ptr, ...) @_ZN8JVMCIEnv12fthrow_errorEPKciS1_z(ptr noundef nonnull align 8 dereferenceable(64) %3, ptr noundef nonnull @.str, i32 noundef 73, ptr noundef nonnull @.str.4) #5
  br label %53

53:                                               ; preds = %52, %45, %_ZN17NativeInstruction11is_call_regEv.exit.thread, %17, %6
  %.0 = phi i32 [ %7, %6 ], [ %32, %17 ], [ %38, %_ZN17NativeInstruction11is_call_regEv.exit.thread ], [ %51, %45 ], [ 0, %52 ]
  ret i32 %.0
}